; Function Attrs: nounwind uwtable
define ptr @l_Array_mapMUnsafe_map___at_Lean_Compiler_LCNF_UnreachableBranches_elimDead_go___spec__7___boxed(ptr noundef readonly captures(none) %0) local_unnamed_addr #1 {
  %2 = load ptr, ptr %0, align 8, !tbaa !11
  %3 = getelementptr inbounds nuw i8, ptr %0, i64 8
  %4 = load ptr, ptr %3, align 8, !tbaa !11
  %5 = getelementptr inbounds nuw i8, ptr %0, i64 16
  %6 = load ptr, ptr %5, align 8, !tbaa !11
  %7 = getelementptr inbounds nuw i8, ptr %0, i64 24
  %8 = load ptr, ptr %7, align 8, !tbaa !11
  %9 = getelementptr inbounds nuw i8, ptr %0, i64 32
  %10 = load ptr, ptr %9, align 8, !tbaa !11
  %11 = getelementptr inbounds nuw i8, ptr %0, i64 40
  %12 = load ptr, ptr %11, align 8, !tbaa !11
  %13 = getelementptr inbounds nuw i8, ptr %0, i64 48
  %14 = load ptr, ptr %13, align 8, !tbaa !11
  %15 = getelementptr inbounds nuw i8, ptr %0, i64 56
  %16 = load ptr, ptr %15, align 8, !tbaa !11
  %17 = getelementptr inbounds nuw i8, ptr %0, i64 64
  %18 = load ptr, ptr %17, align 8, !tbaa !11
  %19 = getelementptr inbounds nuw i8, ptr %0, i64 72
  %20 = load ptr, ptr %19, align 8, !tbaa !11
  %21 = getelementptr inbounds nuw i8, ptr %0, i64 80
  %22 = load ptr, ptr %21, align 8, !tbaa !11
  %23 = getelementptr inbounds nuw i8, ptr %0, i64 88
  %24 = load ptr, ptr %23, align 8, !tbaa !11
  %25 = getelementptr inbounds nuw i8, ptr %0, i64 96
  %26 = load ptr, ptr %25, align 8, !tbaa !11
  %27 = getelementptr inbounds nuw i8, ptr %0, i64 104
  %28 = load ptr, ptr %27, align 8, !tbaa !11
  %29 = getelementptr inbounds nuw i8, ptr %0, i64 112
  %30 = load ptr, ptr %29, align 8, !tbaa !11
  %31 = getelementptr inbounds nuw i8, ptr %0, i64 120
  %32 = load ptr, ptr %31, align 8, !tbaa !11
  %33 = getelementptr inbounds nuw i8, ptr %0, i64 128
  %34 = load ptr, ptr %33, align 8, !tbaa !11
  %35 = getelementptr i8, ptr %10, i64 8
  %.val71 = load i64, ptr %35, align 8, !tbaa !9
  %36 = ptrtoint ptr %10 to i64
  %37 = and i64 %36, 1
  %.not = icmp eq i64 %37, 0
  br i1 %.not, label %38, label %lean_dec.exit54

38:                                               ; preds = %1
  %39 = load i32, ptr %10, align 4, !tbaa !4
  %40 = icmp sgt i32 %39, 1
  br i1 %40, label %41, label %43, !prof !13

41:                                               ; preds = %38
  %42 = add nsw i32 %39, -1
  store i32 %42, ptr %10, align 4, !tbaa !4
  br label %lean_dec.exit54

43:                                               ; preds = %38
  %.not.i = icmp eq i32 %39, 0
  br i1 %.not.i, label %lean_dec.exit54, label %44

44:                                               ; preds = %43
  tail call void @lean_dec_ref_cold(ptr noundef nonnull %10) #8
  br label %lean_dec.exit54

lean_dec.exit54:                                  ; preds = %44, %43, %41, %1
  %45 = getelementptr i8, ptr %12, i64 8
  %.val73 = load i64, ptr %45, align 8, !tbaa !9
  %46 = ptrtoint ptr %12 to i64
  %47 = and i64 %46, 1
  %.not74 = icmp eq i64 %47, 0
  br i1 %.not74, label %48, label %lean_dec.exit53

48:                                               ; preds = %lean_dec.exit54
  %49 = load i32, ptr %12, align 4, !tbaa !4
  %50 = icmp sgt i32 %49, 1
  br i1 %50, label %51, label %53, !prof !13

51:                                               ; preds = %48
  %52 = add nsw i32 %49, -1
  store i32 %52, ptr %12, align 4, !tbaa !4
  br label %lean_dec.exit53

53:                                               ; preds = %48
  %.not.i55 = icmp eq i32 %49, 0
  br i1 %.not.i55, label %lean_dec.exit53, label %54

54:                                               ; preds = %53
  tail call void @lean_dec_ref_cold(ptr noundef nonnull %12) #8
  br label %lean_dec.exit53

lean_dec.exit53:                                  ; preds = %54, %53, %51, %lean_dec.exit54
  %55 = getelementptr i8, ptr %14, i64 8
  %.val72 = load i64, ptr %55, align 8, !tbaa !9
  %56 = ptrtoint ptr %14 to i64
  %57 = and i64 %56, 1
  %.not75 = icmp eq i64 %57, 0
  br i1 %.not75, label %58, label %lean_dec.exit52

58:                                               ; preds = %lean_dec.exit53
  %59 = load i32, ptr %14, align 4, !tbaa !4
  %60 = icmp sgt i32 %59, 1
  br i1 %60, label %61, label %63, !prof !13

61:                                               ; preds = %58
  %62 = add nsw i32 %59, -1
  store i32 %62, ptr %14, align 4, !tbaa !4
  br label %lean_dec.exit52

63:                                               ; preds = %58
  %.not.i57 = icmp eq i32 %59, 0
  br i1 %.not.i57, label %lean_dec.exit52, label %64

64:                                               ; preds = %63
  tail call void @lean_dec_ref_cold(ptr noundef nonnull %14) #8
  br label %lean_dec.exit52

lean_dec.exit52:                                  ; preds = %64, %63, %61, %lean_dec.exit53
  %65 = getelementptr i8, ptr %16, i64 8
  %.val70 = load i64, ptr %65, align 8, !tbaa !9
  %66 = ptrtoint ptr %16 to i64
  %67 = and i64 %66, 1
  %.not76 = icmp eq i64 %67, 0
  br i1 %.not76, label %68, label %lean_dec.exit51

68:                                               ; preds = %lean_dec.exit52
  %69 = load i32, ptr %16, align 4, !tbaa !4
  %70 = icmp sgt i32 %69, 1
  br i1 %70, label %71, label %73, !prof !13

71:                                               ; preds = %68
  %72 = add nsw i32 %69, -1
  store i32 %72, ptr %16, align 4, !tbaa !4
  br label %lean_dec.exit51

73:                                               ; preds = %68
  %.not.i59 = icmp eq i32 %69, 0
  br i1 %.not.i59, label %lean_dec.exit51, label %74

74:                                               ; preds = %73
  tail call void @lean_dec_ref_cold(ptr noundef nonnull %16) #8
  br label %lean_dec.exit51

lean_dec.exit51:                                  ; preds = %74, %73, %71, %lean_dec.exit52
  %75 = getelementptr i8, ptr %20, i64 8
  %.val69 = load i64, ptr %75, align 8, !tbaa !9
  %76 = ptrtoint ptr %20 to i64
  %77 = and i64 %76, 1
  %.not77 = icmp eq i64 %77, 0
  br i1 %.not77, label %78, label %lean_dec.exit50

78:                                               ; preds = %lean_dec.exit51
  %79 = load i32, ptr %20, align 4, !tbaa !4
  %80 = icmp sgt i32 %79, 1
  br i1 %80, label %81, label %83, !prof !13

81:                                               ; preds = %78
  %82 = add nsw i32 %79, -1
  store i32 %82, ptr %20, align 4, !tbaa !4
  br label %lean_dec.exit50

83:                                               ; preds = %78
  %.not.i61 = icmp eq i32 %79, 0
  br i1 %.not.i61, label %lean_dec.exit50, label %84

84:                                               ; preds = %83
  tail call void @lean_dec_ref_cold(ptr noundef nonnull %20) #8
  br label %lean_dec.exit50

lean_dec.exit50:                                  ; preds = %84, %83, %81, %lean_dec.exit51
  %85 = getelementptr i8, ptr %22, i64 8
  %.val = load i64, ptr %85, align 8, !tbaa !9
  %86 = ptrtoint ptr %22 to i64
  %87 = and i64 %86, 1
  %.not78 = icmp eq i64 %87, 0
  br i1 %.not78, label %88, label %lean_dec.exit49

88:                                               ; preds = %lean_dec.exit50
  %89 = load i32, ptr %22, align 4, !tbaa !4
  %90 = icmp sgt i32 %89, 1
  br i1 %90, label %91, label %93, !prof !13

91:                                               ; preds = %88
  %92 = add nsw i32 %89, -1
  store i32 %92, ptr %22, align 4, !tbaa !4
  br label %lean_dec.exit49

93:                                               ; preds = %88
  %.not.i63 = icmp eq i32 %89, 0
  br i1 %.not.i63, label %lean_dec.exit49, label %94

94:                                               ; preds = %93
  tail call void @lean_dec_ref_cold(ptr noundef nonnull %22) #8
  br label %lean_dec.exit49

lean_dec.exit49:                                  ; preds = %94, %93, %91, %lean_dec.exit50
  %95 = tail call ptr @l_Array_mapMUnsafe_map___at_Lean_Compiler_LCNF_UnreachableBranches_elimDead_go___spec__7(ptr noundef %2, ptr noundef %4, ptr noundef %6, ptr noundef %8, i64 noundef %.val71, i64 noundef %.val73, i64 noundef %.val72, i64 noundef %.val70, ptr noundef %18, i64 noundef %.val69, i64 noundef %.val, ptr noundef %24, ptr noundef %26, ptr noundef %28, ptr noundef %30, ptr noundef %32, ptr noundef %34)
  %96 = ptrtoint ptr %6 to i64
  %97 = and i64 %96, 1
  %.not79 = icmp eq i64 %97, 0
  br i1 %.not79, label %98, label %lean_dec.exit48

98:                                               ; preds = %lean_dec.exit49
  %99 = load i32, ptr %6, align 4, !tbaa !4
  %100 = icmp sgt i32 %99, 1
  br i1 %100, label %101, label %103, !prof !13

101:                                              ; preds = %98
  %102 = add nsw i32 %99, -1
  store i32 %102, ptr %6, align 4, !tbaa !4
  br label %lean_dec.exit48

103:                                              ; preds = %98
  %.not.i65 = icmp eq i32 %99, 0
  br i1 %.not.i65, label %lean_dec.exit48, label %104

104:                                              ; preds = %103
  tail call void @lean_dec_ref_cold(ptr noundef nonnull %6) #8
  br label %lean_dec.exit48

lean_dec.exit48:                                  ; preds = %104, %103, %101, %lean_dec.exit49
  %105 = ptrtoint ptr %2 to i64
  %106 = and i64 %105, 1
  %.not80 = icmp eq i64 %106, 0
  br i1 %.not80, label %107, label %lean_dec.exit

107:                                              ; preds = %lean_dec.exit48
  %108 = load i32, ptr %2, align 4, !tbaa !4
  %109 = icmp sgt i32 %108, 1
  br i1 %109, label %110, label %112, !prof !13

110:                                              ; preds = %107
  %111 = add nsw i32 %108, -1
  store i32 %111, ptr %2, align 4, !tbaa !4
  br label %lean_dec.exit

112:                                              ; preds = %107
  %.not.i67 = icmp eq i32 %108, 0
  br i1 %.not.i67, label %lean_dec.exit, label %113

113:                                              ; preds = %112
  tail call void @lean_dec_ref_cold(ptr noundef nonnull %2) #8
  br label %lean_dec.exit

lean_dec.exit:                                    ; preds = %113, %112, %110, %lean_dec.exit48
  ret ptr %95
}